; Function Attrs: mustprogress nofree norecurse nosync nounwind willreturn memory(read, inaccessiblemem: none) uwtable
define noundef zeroext i1 @_ZNK3net10QuicFramer18IsSupportedVersionENS_11QuicVersionE(ptr noundef nonnull readonly align 8 captures(none) dereferenceable(408) %0, i32 noundef %1) local_unnamed_addr #9 align 2 {
  %3 = getelementptr inbounds nuw i8, ptr %0, i64 272
  %4 = getelementptr inbounds nuw i8, ptr %0, i64 280
  %5 = load ptr, ptr %4, align 8, !tbaa !55
  %6 = load ptr, ptr %3, align 8, !tbaa !56
  %.not8.not = icmp eq ptr %5, %6
  br i1 %.not8.not, label %._crit_edge, label %.lr.ph.preheader

.lr.ph.preheader:                                 ; preds = %2
  %7 = ptrtoint ptr %5 to i64
  %8 = ptrtoint ptr %6 to i64
  %9 = sub i64 %7, %8
  %10 = ashr exact i64 %9, 2
  %umax = tail call i64 @llvm.umax.i64(i64 %10, i64 1)
  br label %.lr.ph

.lr.ph:                                           ; preds = %.lr.ph, %.lr.ph.preheader
  %.069 = phi i64 [ 0, %.lr.ph.preheader ], [ %14, %.lr.ph ]
  %11 = getelementptr inbounds nuw i32, ptr %6, i64 %.069
  %12 = load i32, ptr %11, align 4, !tbaa !66
  %13 = icmp eq i32 %1, %12
  %14 = add nuw i64 %.069, 1
  %exitcond.not = icmp eq i64 %14, %umax
  %or.cond = select i1 %13, i1 true, i1 %exitcond.not
  br i1 %or.cond, label %._crit_edge, label %.lr.ph, !llvm.loop !79

._crit_edge:                                      ; preds = %.lr.ph, %2
  %.not.lcssa = phi i1 [ false, %2 ], [ %13, %.lr.ph ]
  ret i1 %.not.lcssa
}